target datalayout = "e-m:e-p270:32:32-p271:32:32-p272:64:64-i64:64-i128:128-f80:128-n8:16:32:64-S128"
target triple = "x86_64-pc-linux-gnu"

%struct.APMExtraData = type { i32, i32, i32, i32, i32, %struct.APMState, [7 x i32], i32 }
%struct.APMState = type { i32, i32, i32, i32, i32, i32, i32 }
%struct.AVFormatContext = type { ptr, ptr, ptr, ptr, ptr, i32, i32, ptr, i32, ptr, i32, ptr, ptr, i64, i64, i64, i32, i32, i32, i64, i64, ptr, i32, i32, ptr, i32, i32, i32, i32, ptr, i64, i32, i32, %struct.AVIOInterruptCB, i32, i32, i32, i32, i64, i32, i32, i32, i32, i32, i32, i32, i32, i32, i32, i32, i32, i64, i32, i32, i32, i32, i32, ptr, ptr, ptr, ptr, i32, ptr, ptr, ptr, ptr, i32, ptr, ptr, i64, ptr, ptr, ptr, i64 }
%struct.AVIOInterruptCB = type { ptr, ptr }
%struct.AVStream = type { ptr, i32, i32, ptr, ptr, %struct.AVRational, i64, i64, i64, i32, i32, %struct.AVRational, ptr, %struct.AVRational, %struct.AVPacket, i32, %struct.AVRational, i32 }
%struct.AVPacket = type { ptr, i64, i64, ptr, i32, i32, i32, ptr, i32, i64, i64, ptr, ptr, %struct.AVRational }
%struct.AVRational = type { i32, i32 }
%struct.AVCodecParameters = type { i32, i32, i32, ptr, i32, ptr, i32, i32, i64, i32, i32, i32, i32, i32, i32, %struct.AVRational, %struct.AVRational, i32, i32, i32, i32, i32, i32, i32, %struct.AVChannelLayout, i32, i32, i32, i32, i32, i32 }
%struct.AVChannelLayout = type { i32, i32, %union.anon, ptr }
%union.anon = type { i64 }

@.str.2 = private unnamed_addr constant [14 x i8] c"Saved Samples\00", align 1

; Function Attrs: nounwind uwtable
define internal i32 @apm_read_header(ptr noundef %0) #0 {
  %2 = alloca i32, align 4
  %3 = alloca ptr, align 8
  %4 = alloca i64, align 8
  %5 = alloca ptr, align 8
  %6 = alloca %struct.APMExtraData, align 4
  %7 = alloca ptr, align 8
  %8 = alloca [80 x i8], align 16
  %9 = alloca i32, align 4
  %10 = alloca i32, align 4
  store ptr %0, ptr %3, align 8, !tbaa !15
  call void @llvm.lifetime.start.p0(i64 8, ptr %4) #6
  call void @llvm.lifetime.start.p0(i64 8, ptr %5) #6
  call void @llvm.lifetime.start.p0(i64 80, ptr %6) #6
  call void @llvm.lifetime.start.p0(i64 8, ptr %7) #6
  call void @llvm.lifetime.start.p0(i64 80, ptr %8) #6
  call void @llvm.lifetime.start.p0(i64 4, ptr %9) #6
  %11 = load ptr, ptr %3, align 8, !tbaa !15
  %12 = call ptr @avformat_new_stream(ptr noundef %11, ptr noundef null)
  store ptr %12, ptr %5, align 8, !tbaa !17
  %13 = icmp ne ptr %12, null
  br i1 %13, label %15, label %14

14:                                               ; preds = %1
  store i32 -12, ptr %2, align 4
  store i32 1, ptr %10, align 4
  br label %176

15:                                               ; preds = %1
  %16 = load ptr, ptr %3, align 8, !tbaa !15
  %17 = getelementptr inbounds nuw %struct.AVFormatContext, ptr %16, i32 0, i32 4
  %18 = load ptr, ptr %17, align 8, !tbaa !19
  %19 = call i32 @avio_rl16(ptr noundef %18)
  %20 = icmp ne i32 %19, 8192
  br i1 %20, label %21, label %22

21:                                               ; preds = %15
  store i32 -1094995529, ptr %2, align 4
  store i32 1, ptr %10, align 4
  br label %176

22:                                               ; preds = %15
  %23 = load ptr, ptr %5, align 8, !tbaa !17
  %24 = getelementptr inbounds nuw %struct.AVStream, ptr %23, i32 0, i32 3
  %25 = load ptr, ptr %24, align 8, !tbaa !34
  store ptr %25, ptr %7, align 8, !tbaa !41
  %26 = load ptr, ptr %3, align 8, !tbaa !15
  %27 = getelementptr inbounds nuw %struct.AVFormatContext, ptr %26, i32 0, i32 4
  %28 = load ptr, ptr %27, align 8, !tbaa !19
  %29 = call i32 @avio_rl16(ptr noundef %28)
  store i32 %29, ptr %9, align 4, !tbaa !42
  %30 = load ptr, ptr %3, align 8, !tbaa !15
  %31 = getelementptr inbounds nuw %struct.AVFormatContext, ptr %30, i32 0, i32 4
  %32 = load ptr, ptr %31, align 8, !tbaa !19
  %33 = call i32 @avio_rl32(ptr noundef %32)
  %34 = load ptr, ptr %7, align 8, !tbaa !41
  %35 = getelementptr inbounds nuw %struct.AVCodecParameters, ptr %34, i32 0, i32 25
  store i32 %33, ptr %35, align 8, !tbaa !43
  %36 = load ptr, ptr %3, align 8, !tbaa !15
  %37 = getelementptr inbounds nuw %struct.AVFormatContext, ptr %36, i32 0, i32 4
  %38 = load ptr, ptr %37, align 8, !tbaa !19
  %39 = call i64 @avio_skip(ptr noundef %38, i64 noundef 4)
  store i64 %39, ptr %4, align 8, !tbaa !46
  %40 = icmp slt i64 %39, 0
  br i1 %40, label %41, label %44

41:                                               ; preds = %22
  %42 = load i64, ptr %4, align 8, !tbaa !46
  %43 = trunc i64 %42 to i32
  store i32 %43, ptr %2, align 4
  store i32 1, ptr %10, align 4
  br label %176

44:                                               ; preds = %22
  %45 = load ptr, ptr %3, align 8, !tbaa !15
  %46 = getelementptr inbounds nuw %struct.AVFormatContext, ptr %45, i32 0, i32 4
  %47 = load ptr, ptr %46, align 8, !tbaa !19
  %48 = call i32 @avio_rl16(ptr noundef %47)
  %49 = load ptr, ptr %7, align 8, !tbaa !41
  %50 = getelementptr inbounds nuw %struct.AVCodecParameters, ptr %49, i32 0, i32 26
  store i32 %48, ptr %50, align 4, !tbaa !47
  %51 = load ptr, ptr %3, align 8, !tbaa !15
  %52 = getelementptr inbounds nuw %struct.AVFormatContext, ptr %51, i32 0, i32 4
  %53 = load ptr, ptr %52, align 8, !tbaa !19
  %54 = call i32 @avio_rl16(ptr noundef %53)
  %55 = load ptr, ptr %7, align 8, !tbaa !41
  %56 = getelementptr inbounds nuw %struct.AVCodecParameters, ptr %55, i32 0, i32 9
  store i32 %54, ptr %56, align 8, !tbaa !48
  %57 = load ptr, ptr %3, align 8, !tbaa !15
  %58 = getelementptr inbounds nuw %struct.AVFormatContext, ptr %57, i32 0, i32 4
  %59 = load ptr, ptr %58, align 8, !tbaa !19
  %60 = call i32 @avio_rl32(ptr noundef %59)
  %61 = icmp ne i32 %60, 80
  br i1 %61, label %62, label %63

62:                                               ; preds = %44
  store i32 -1094995529, ptr %2, align 4
  store i32 1, ptr %10, align 4
  br label %176

63:                                               ; preds = %44
  %64 = load ptr, ptr %7, align 8, !tbaa !41
  %65 = getelementptr inbounds nuw %struct.AVCodecParameters, ptr %64, i32 0, i32 25
  %66 = load i32, ptr %65, align 8, !tbaa !43
  %67 = icmp sgt i32 %66, 268435455
  br i1 %67, label %68, label %69

68:                                               ; preds = %63
  store i32 -1094995529, ptr %2, align 4
  store i32 1, ptr %10, align 4
  br label %176

69:                                               ; preds = %63
  %70 = load ptr, ptr %7, align 8, !tbaa !41
  %71 = getelementptr inbounds nuw %struct.AVCodecParameters, ptr %70, i32 0, i32 9
  %72 = load i32, ptr %71, align 8, !tbaa !48
  %73 = icmp ne i32 %72, 4
  br i1 %73, label %74, label %75

74:                                               ; preds = %69
  store i32 -1094995529, ptr %2, align 4
  store i32 1, ptr %10, align 4
  br label %176

75:                                               ; preds = %69
  %76 = load i32, ptr %9, align 4, !tbaa !42
  %77 = icmp sgt i32 %76, 2
  br i1 %77, label %81, label %78

78:                                               ; preds = %75
  %79 = load i32, ptr %9, align 4, !tbaa !42
  %80 = icmp eq i32 %79, 0
  br i1 %80, label %81, label %82

81:                                               ; preds = %78, %75
  store i32 -1094995529, ptr %2, align 4
  store i32 1, ptr %10, align 4
  br label %176

82:                                               ; preds = %78
  %83 = load ptr, ptr %7, align 8, !tbaa !41
  %84 = getelementptr inbounds nuw %struct.AVCodecParameters, ptr %83, i32 0, i32 24
  %85 = load i32, ptr %9, align 4, !tbaa !42
  call void @av_channel_layout_default(ptr noundef %84, i32 noundef %85)
  %86 = load ptr, ptr %7, align 8, !tbaa !41
  %87 = getelementptr inbounds nuw %struct.AVCodecParameters, ptr %86, i32 0, i32 0
  store i32 1, ptr %87, align 8, !tbaa !49
  %88 = load ptr, ptr %7, align 8, !tbaa !41
  %89 = getelementptr inbounds nuw %struct.AVCodecParameters, ptr %88, i32 0, i32 1
  store i32 69677, ptr %89, align 4, !tbaa !50
  %90 = load ptr, ptr %7, align 8, !tbaa !41
  %91 = getelementptr inbounds nuw %struct.AVCodecParameters, ptr %90, i32 0, i32 7
  store i32 1, ptr %91, align 4, !tbaa !51
  %92 = load ptr, ptr %7, align 8, !tbaa !41
  %93 = getelementptr inbounds nuw %struct.AVCodecParameters, ptr %92, i32 0, i32 24
  %94 = getelementptr inbounds nuw %struct.AVChannelLayout, ptr %93, i32 0, i32 1
  %95 = load i32, ptr %94, align 4, !tbaa !52
  %96 = sext i32 %95 to i64
  %97 = load ptr, ptr %7, align 8, !tbaa !41
  %98 = getelementptr inbounds nuw %struct.AVCodecParameters, ptr %97, i32 0, i32 25
  %99 = load i32, ptr %98, align 8, !tbaa !43
  %100 = sext i32 %99 to i64
  %101 = mul nsw i64 %96, %100
  %102 = load ptr, ptr %7, align 8, !tbaa !41
  %103 = getelementptr inbounds nuw %struct.AVCodecParameters, ptr %102, i32 0, i32 9
  %104 = load i32, ptr %103, align 8, !tbaa !48
  %105 = sext i32 %104 to i64
  %106 = mul nsw i64 %101, %105
  %107 = load ptr, ptr %7, align 8, !tbaa !41
  %108 = getelementptr inbounds nuw %struct.AVCodecParameters, ptr %107, i32 0, i32 8
  store i64 %106, ptr %108, align 8, !tbaa !53
  %109 = load ptr, ptr %3, align 8, !tbaa !15
  %110 = getelementptr inbounds nuw %struct.AVFormatContext, ptr %109, i32 0, i32 4
  %111 = load ptr, ptr %110, align 8, !tbaa !19
  %112 = getelementptr inbounds [80 x i8], ptr %8, i64 0, i64 0
  %113 = call i32 @avio_read(ptr noundef %111, ptr noundef %112, i32 noundef 80)
  %114 = sext i32 %113 to i64
  store i64 %114, ptr %4, align 8, !tbaa !46
  %115 = icmp slt i64 %114, 0
  br i1 %115, label %116, label %119

116:                                              ; preds = %82
  %117 = load i64, ptr %4, align 8, !tbaa !46
  %118 = trunc i64 %117 to i32
  store i32 %118, ptr %2, align 4
  store i32 1, ptr %10, align 4
  br label %176

119:                                              ; preds = %82
  %120 = load i64, ptr %4, align 8, !tbaa !46
  %121 = icmp ne i64 %120, 80
  br i1 %121, label %122, label %123

122:                                              ; preds = %119
  store i32 -5, ptr %2, align 4
  store i32 1, ptr %10, align 4
  br label %176

123:                                              ; preds = %119
  br label %124

124:                                              ; preds = %123
  %125 = getelementptr inbounds [80 x i8], ptr %8, i64 0, i64 0
  call void @apm_parse_extradata(ptr noundef %6, ptr noundef %125)
  %126 = getelementptr inbounds nuw %struct.APMExtraData, ptr %6, i32 0, i32 0
  %127 = load i32, ptr %126, align 4, !tbaa !54
  %128 = icmp ne i32 %127, 842101622
  br i1 %128, label %133, label %129

129:                                              ; preds = %124
  %130 = getelementptr inbounds nuw %struct.APMExtraData, ptr %6, i32 0, i32 7
  %131 = load i32, ptr %130, align 4, !tbaa !57
  %132 = icmp ne i32 %131, 1096040772
  br i1 %132, label %133, label %134

133:                                              ; preds = %129, %124
  store i32 -1094995529, ptr %2, align 4
  store i32 1, ptr %10, align 4
  br label %176

134:                                              ; preds = %129
  %135 = getelementptr inbounds nuw %struct.APMExtraData, ptr %6, i32 0, i32 5
  %136 = getelementptr inbounds nuw %struct.APMState, ptr %135, i32 0, i32 0
  %137 = load i32, ptr %136, align 4, !tbaa !58
  %138 = icmp ne i32 %137, 0
  br i1 %138, label %139, label %141

139:                                              ; preds = %134
  %140 = load ptr, ptr %3, align 8, !tbaa !15
  call void (ptr, ptr, ...) @avpriv_request_sample(ptr noundef %140, ptr noundef @.str.2)
  store i32 -1163346256, ptr %2, align 4
  store i32 1, ptr %10, align 4
  br label %176

141:                                              ; preds = %134
  %142 = load ptr, ptr %7, align 8, !tbaa !41
  %143 = call i32 @ff_alloc_extradata(ptr noundef %142, i32 noundef 28)
  %144 = sext i32 %143 to i64
  store i64 %144, ptr %4, align 8, !tbaa !46
  %145 = icmp slt i64 %144, 0
  br i1 %145, label %146, label %149

146:                                              ; preds = %141
  %147 = load i64, ptr %4, align 8, !tbaa !46
  %148 = trunc i64 %147 to i32
  store i32 %148, ptr %2, align 4
  store i32 1, ptr %10, align 4
  br label %176

149:                                              ; preds = %141
  %150 = load ptr, ptr %7, align 8, !tbaa !41
  %151 = getelementptr inbounds nuw %struct.AVCodecParameters, ptr %150, i32 0, i32 3
  %152 = load ptr, ptr %151, align 8, !tbaa !59
  %153 = getelementptr inbounds [80 x i8], ptr %8, i64 0, i64 0
  %154 = getelementptr inbounds i8, ptr %153, i64 20
  call void @llvm.memcpy.p0.p0.i64(ptr align 1 %152, ptr align 1 %154, i64 28, i1 false)
  %155 = load ptr, ptr %5, align 8, !tbaa !17
  %156 = load ptr, ptr %7, align 8, !tbaa !41
  %157 = getelementptr inbounds nuw %struct.AVCodecParameters, ptr %156, i32 0, i32 25
  %158 = load i32, ptr %157, align 8, !tbaa !43
  call void @avpriv_set_pts_info(ptr noundef %155, i32 noundef 64, i32 noundef 1, i32 noundef %158)
  %159 = load ptr, ptr %5, align 8, !tbaa !17
  %160 = getelementptr inbounds nuw %struct.AVStream, ptr %159, i32 0, i32 6
  store i64 0, ptr %160, align 8, !tbaa !60
  %161 = getelementptr inbounds nuw %struct.APMExtraData, ptr %6, i32 0, i32 2
  %162 = load i32, ptr %161, align 4, !tbaa !61
  %163 = load ptr, ptr %7, align 8, !tbaa !41
  %164 = getelementptr inbounds nuw %struct.AVCodecParameters, ptr %163, i32 0, i32 9
  %165 = load i32, ptr %164, align 8, !tbaa !48
  %166 = sdiv i32 8, %165
  %167 = mul i32 %162, %166
  %168 = load ptr, ptr %7, align 8, !tbaa !41
  %169 = getelementptr inbounds nuw %struct.AVCodecParameters, ptr %168, i32 0, i32 24
  %170 = getelementptr inbounds nuw %struct.AVChannelLayout, ptr %169, i32 0, i32 1
  %171 = load i32, ptr %170, align 4, !tbaa !52
  %172 = udiv i32 %167, %171
  %173 = zext i32 %172 to i64
  %174 = load ptr, ptr %5, align 8, !tbaa !17
  %175 = getelementptr inbounds nuw %struct.AVStream, ptr %174, i32 0, i32 7
  store i64 %173, ptr %175, align 8, !tbaa !62
  store i32 0, ptr %2, align 4
  store i32 1, ptr %10, align 4
  br label %176

176:                                              ; preds = %149, %146, %139, %133, %122, %116, %81, %74, %68, %62, %41, %21, %14
  call void @llvm.lifetime.end.p0(i64 4, ptr %9) #6
  call void @llvm.lifetime.end.p0(i64 80, ptr %8) #6
  call void @llvm.lifetime.end.p0(i64 8, ptr %7) #6
  call void @llvm.lifetime.end.p0(i64 80, ptr %6) #6
  call void @llvm.lifetime.end.p0(i64 8, ptr %5) #6
  call void @llvm.lifetime.end.p0(i64 8, ptr %4) #6
  %177 = load i32, ptr %2, align 4
  ret i32 %177
}