; Function Attrs: nounwind uwtable
define internal i32 @apm_read_header(ptr noundef %0) #1 {
  %2 = alloca %struct.APMExtraData, align 4
  %3 = alloca [80 x i8], align 16
  call void @llvm.lifetime.start.p0(i64 80, ptr nonnull %2) #7
  call void @llvm.lifetime.start.p0(i64 80, ptr nonnull %3) #7
  %4 = tail call ptr @avformat_new_stream(ptr noundef %0, ptr noundef null) #7
  %.not = icmp eq ptr %4, null
  br i1 %.not, label %85, label %5

5:                                                ; preds = %1
  %6 = getelementptr inbounds nuw i8, ptr %0, i64 32
  %7 = load ptr, ptr %6, align 8, !tbaa !13
  %8 = tail call i32 @avio_rl16(ptr noundef %7) #7
  %.not47 = icmp eq i32 %8, 8192
  br i1 %.not47, label %9, label %85

9:                                                ; preds = %5
  %10 = getelementptr inbounds nuw i8, ptr %4, i64 16
  %11 = load ptr, ptr %10, align 8, !tbaa !28
  %12 = load ptr, ptr %6, align 8, !tbaa !13
  %13 = tail call i32 @avio_rl16(ptr noundef %12) #7
  %14 = load ptr, ptr %6, align 8, !tbaa !13
  %15 = tail call i32 @avio_rl32(ptr noundef %14) #7
  %16 = getelementptr inbounds nuw i8, ptr %11, i64 152
  store i32 %15, ptr %16, align 8, !tbaa !35
  %17 = load ptr, ptr %6, align 8, !tbaa !13
  %18 = tail call i64 @avio_skip(ptr noundef %17, i64 noundef 4) #7
  %19 = icmp slt i64 %18, 0
  br i1 %19, label %20, label %22

20:                                               ; preds = %9
  %21 = trunc i64 %18 to i32
  br label %85

22:                                               ; preds = %9
  %23 = load ptr, ptr %6, align 8, !tbaa !13
  %24 = tail call i32 @avio_rl16(ptr noundef %23) #7
  %25 = getelementptr inbounds nuw i8, ptr %11, i64 156
  store i32 %24, ptr %25, align 4, !tbaa !38
  %26 = load ptr, ptr %6, align 8, !tbaa !13
  %27 = tail call i32 @avio_rl16(ptr noundef %26) #7
  %28 = getelementptr inbounds nuw i8, ptr %11, i64 56
  store i32 %27, ptr %28, align 8, !tbaa !39
  %29 = load ptr, ptr %6, align 8, !tbaa !13
  %30 = tail call i32 @avio_rl32(ptr noundef %29) #7
  %.not48 = icmp eq i32 %30, 80
  br i1 %.not48, label %31, label %85

31:                                               ; preds = %22
  %32 = load i32, ptr %16, align 8, !tbaa !35
  %33 = icmp sgt i32 %32, 268435455
  br i1 %33, label %85, label %34

34:                                               ; preds = %31
  %35 = load i32, ptr %28, align 8, !tbaa !39
  %.not49 = icmp eq i32 %35, 4
  br i1 %.not49, label %36, label %85

36:                                               ; preds = %34
  %37 = icmp sgt i32 %13, 2
  %38 = icmp eq i32 %13, 0
  %or.cond = or i1 %37, %38
  br i1 %or.cond, label %85, label %39

39:                                               ; preds = %36
  %40 = getelementptr inbounds nuw i8, ptr %11, i64 128
  tail call void @av_channel_layout_default(ptr noundef nonnull %40, i32 noundef %13) #7
  store i32 1, ptr %11, align 8, !tbaa !40
  %41 = getelementptr inbounds nuw i8, ptr %11, i64 4
  store i32 69677, ptr %41, align 4, !tbaa !41
  %42 = getelementptr inbounds nuw i8, ptr %11, i64 44
  store i32 1, ptr %42, align 4, !tbaa !42
  %43 = getelementptr inbounds nuw i8, ptr %11, i64 132
  %44 = load i32, ptr %43, align 4, !tbaa !43
  %45 = sext i32 %44 to i64
  %46 = load i32, ptr %16, align 8, !tbaa !35
  %47 = sext i32 %46 to i64
  %48 = mul nsw i64 %47, %45
  %49 = load i32, ptr %28, align 8, !tbaa !39
  %50 = sext i32 %49 to i64
  %51 = mul nsw i64 %48, %50
  %52 = getelementptr inbounds nuw i8, ptr %11, i64 48
  store i64 %51, ptr %52, align 8, !tbaa !44
  %53 = load ptr, ptr %6, align 8, !tbaa !13
  %54 = call i32 @avio_read(ptr noundef %53, ptr noundef nonnull %3, i32 noundef 80) #7
  %55 = icmp slt i32 %54, 0
  br i1 %55, label %85, label %56

56:                                               ; preds = %39
  %.not50 = icmp eq i32 %54, 80
  br i1 %.not50, label %57, label %85

57:                                               ; preds = %56
  call fastcc void @apm_parse_extradata(ptr noundef %2, ptr noundef %3)
  %58 = load i32, ptr %2, align 4, !tbaa !45
  %59 = icmp ne i32 %58, 842101622
  %60 = getelementptr inbounds nuw i8, ptr %2, i64 76
  %61 = load i32, ptr %60, align 4
  %62 = icmp ne i32 %61, 1096040772
  %or.cond4 = select i1 %59, i1 true, i1 %62
  br i1 %or.cond4, label %85, label %63

63:                                               ; preds = %57
  %64 = getelementptr inbounds nuw i8, ptr %2, i64 20
  %65 = load i32, ptr %64, align 4, !tbaa !48
  %.not51 = icmp eq i32 %65, 0
  br i1 %.not51, label %67, label %66

66:                                               ; preds = %63
  call void (ptr, ptr, ...) @avpriv_request_sample(ptr noundef nonnull %0, ptr noundef nonnull @.str.2) #7
  br label %85

67:                                               ; preds = %63
  %68 = call i32 @ff_alloc_extradata(ptr noundef nonnull %11, i32 noundef 28) #7
  %69 = icmp slt i32 %68, 0
  br i1 %69, label %85, label %70

70:                                               ; preds = %67
  %71 = getelementptr inbounds nuw i8, ptr %11, i64 16
  %72 = load ptr, ptr %71, align 8, !tbaa !49
  %73 = getelementptr inbounds nuw i8, ptr %3, i64 20
  call void @llvm.memcpy.p0.p0.i64(ptr noundef nonnull align 1 dereferenceable(28) %72, ptr noundef nonnull align 4 dereferenceable(28) %73, i64 28, i1 false)
  %74 = load i32, ptr %16, align 8, !tbaa !35
  call void @avpriv_set_pts_info(ptr noundef nonnull %4, i32 noundef 64, i32 noundef 1, i32 noundef %74) #7
  %75 = getelementptr inbounds nuw i8, ptr %4, i64 40
  store i64 0, ptr %75, align 8, !tbaa !50
  %76 = getelementptr inbounds nuw i8, ptr %2, i64 8
  %77 = load i32, ptr %76, align 4, !tbaa !51
  %78 = load i32, ptr %28, align 8, !tbaa !39
  %79 = sdiv i32 8, %78
  %80 = mul i32 %79, %77
  %81 = load i32, ptr %43, align 4, !tbaa !43
  %82 = udiv i32 %80, %81
  %83 = zext i32 %82 to i64
  %84 = getelementptr inbounds nuw i8, ptr %4, i64 48
  store i64 %83, ptr %84, align 8, !tbaa !52
  br label %85

85:                                               ; preds = %67, %57, %56, %39, %36, %34, %31, %22, %5, %1, %70, %66, %20
  %.0 = phi i32 [ %21, %20 ], [ -1163346256, %66 ], [ 0, %70 ], [ -12, %1 ], [ -1094995529, %5 ], [ -1094995529, %22 ], [ -1094995529, %31 ], [ -1094995529, %34 ], [ -1094995529, %36 ], [ %54, %39 ], [ -5, %56 ], [ -1094995529, %57 ], [ %68, %67 ]
  call void @llvm.lifetime.end.p0(i64 80, ptr nonnull %3) #7
  call void @llvm.lifetime.end.p0(i64 80, ptr nonnull %2) #7
  ret i32 %.0
}